target datalayout = "e-m:e-p270:32:32-p271:32:32-p272:64:64-i64:64-i128:128-f80:128-n8:16:32:64-S128"
target triple = "x86_64-pc-linux-gnu"

%struct.pmix_lock_t = type { i32, %struct.pmix_mutex_t, %union.pthread_cond_t, i8 }
%struct.pmix_mutex_t = type { %struct.pmix_object_t, %union.pthread_mutex_t }
%struct.pmix_object_t = type { %union.pthread_mutex_t, ptr, i32, %struct.pmix_tma }
%struct.pmix_tma = type { ptr, ptr, ptr, ptr, ptr, ptr, ptr, ptr }
%union.pthread_mutex_t = type { %struct.__pthread_mutex_s }
%struct.__pthread_mutex_s = type { i32, i32, i32, i32, i32, i16, i16, %struct.__pthread_internal_list }
%struct.__pthread_internal_list = type { ptr, ptr }
%union.pthread_cond_t = type { %struct.__pthread_cond_s }
%struct.__pthread_cond_s = type { %union.__atomic_wide_counter, %union.__atomic_wide_counter, [2 x i32], [2 x i32], i32, i32, [2 x i32] }
%union.__atomic_wide_counter = type { i64 }
%struct.pmix_globals_t = type { i32, %struct.pmix_proc, %struct.pmix_value, %struct.pmix_value, ptr, i32, i32, ptr, i32, i32, i32, i32, i32, ptr, ptr, i32, %struct.pmix_events_t, i8, i8, %struct.timeval, %struct.pmix_list_t, %struct.pmix_pointer_array_t, i32, i32, %struct.pmix_hotel_t, i8, %struct.pmix_list_t, i8, i8, i8, i64, %struct.pmix_list_t, %struct.pmix_topology_t, %struct.pmix_cpuset_t, i8, i8, %struct.pmix_iof_flags_t, %struct.pmix_keyindex_t }
%struct.pmix_proc = type { [256 x i8], i32 }
%struct.pmix_value = type { i16, %union.anon.9 }
%union.anon.9 = type { %struct.pmix_envar_t }
%struct.pmix_envar_t = type { ptr, ptr, i8 }
%struct.pmix_events_t = type { %struct.pmix_object_t, i64, ptr, ptr, %struct.pmix_list_t, %struct.pmix_list_t, %struct.pmix_list_t, %struct.pmix_list_t }
%struct.timeval = type { i64, i64 }
%struct.pmix_pointer_array_t = type { %struct.pmix_object_t, i32, i32, i32, i32, i32, ptr, ptr }
%struct.pmix_hotel_t = type { %struct.pmix_object_t, i32, ptr, %struct.timeval, ptr, ptr, ptr, ptr, i32 }
%struct.pmix_list_t = type { %struct.pmix_object_t, %struct.pmix_list_item_t, i64 }
%struct.pmix_list_item_t = type { %struct.pmix_object_t, ptr, ptr, i32 }
%struct.pmix_topology_t = type { ptr, ptr }
%struct.pmix_cpuset_t = type { ptr, ptr }
%struct.pmix_iof_flags_t = type { i8, i8, i8, i8, i8, i8, i8, ptr, ptr, i8, i8, i8, i8, i8, i8 }
%struct.pmix_keyindex_t = type { %struct.pmix_object_t, ptr, i32 }

@pmix_global_lock = external global %struct.pmix_lock_t, align 8
@pmix_globals = external global %struct.pmix_globals_t, align 8

; Function Attrs: inlinehint nounwind uwtable
define internal void @pmix_mutex_unlock(ptr noundef %0) #2 {
  %2 = alloca ptr, align 8
  store ptr %0, ptr %2, align 8, !tbaa !64
  %3 = load ptr, ptr %2, align 8, !tbaa !64
  %4 = getelementptr inbounds nuw %struct.pmix_mutex_t, ptr %3, i32 0, i32 1
  %5 = call i32 @pthread_mutex_unlock(ptr noundef %4) #10
  ret void
}

; Function Attrs: inlinehint nounwind uwtable
define internal void @pmix_atomic_wmb() #2 {
  fence release
  ret void
}

; Function Attrs: inlinehint nounwind uwtable
define internal void @pmix_atomic_rmb() #2 {
  fence acquire
  ret void
}

; Function Attrs: inlinehint nounwind uwtable
define internal void @pmix_mutex_lock(ptr noundef %0) #2 {
  %2 = alloca ptr, align 8
  store ptr %0, ptr %2, align 8, !tbaa !64
  %3 = load ptr, ptr %2, align 8, !tbaa !64
  %4 = getelementptr inbounds nuw %struct.pmix_mutex_t, ptr %3, i32 0, i32 1
  %5 = call i32 @pthread_mutex_lock(ptr noundef %4) #10
  ret void
}

; Function Attrs: nounwind uwtable
define i32 @PMIx_Get_cpuset(ptr noundef %0, i8 noundef zeroext %1) #0 {
  %3 = alloca i32, align 4
  %4 = alloca ptr, align 8
  %5 = alloca i8, align 1
  %6 = alloca i32, align 4
  %7 = alloca i32, align 4
  store ptr %0, ptr %4, align 8, !tbaa !3
  store i8 %1, ptr %5, align 1, !tbaa !86
  call void @llvm.lifetime.start.p0(i64 4, ptr %6) #10
  br label %8

8:                                                ; preds = %2
  call void @pmix_mutex_lock(ptr noundef getelementptr inbounds nuw (%struct.pmix_lock_t, ptr @pmix_global_lock, i32 0, i32 1))
  br label %9

9:                                                ; preds = %12, %8
  %10 = load volatile i8, ptr getelementptr inbounds nuw (%struct.pmix_lock_t, ptr @pmix_global_lock, i32 0, i32 3), align 8, !tbaa !7, !range !15, !noundef !16
  %11 = trunc i8 %10 to i1
  br i1 %11, label %12, label %14

12:                                               ; preds = %9
  %13 = call i32 @pthread_cond_wait(ptr noundef getelementptr inbounds nuw (%struct.pmix_lock_t, ptr @pmix_global_lock, i32 0, i32 2), ptr noundef getelementptr inbounds nuw (%struct.pmix_mutex_t, ptr getelementptr inbounds nuw (%struct.pmix_lock_t, ptr @pmix_global_lock, i32 0, i32 1), i32 0, i32 1))
  br label %9, !llvm.loop !87

14:                                               ; preds = %9
  call void @pmix_atomic_rmb()
  store volatile i8 1, ptr getelementptr inbounds nuw (%struct.pmix_lock_t, ptr @pmix_global_lock, i32 0, i32 3), align 8, !tbaa !7
  br label %15

15:                                               ; preds = %14
  br label %16

16:                                               ; preds = %15
  %17 = load i32, ptr @pmix_globals, align 8, !tbaa !19
  %18 = icmp sle i32 %17, 0
  br i1 %18, label %19, label %24

19:                                               ; preds = %16
  br label %20

20:                                               ; preds = %19
  store volatile i8 0, ptr getelementptr inbounds nuw (%struct.pmix_lock_t, ptr @pmix_global_lock, i32 0, i32 3), align 8, !tbaa !7
  call void @pmix_atomic_wmb()
  %21 = call i32 @pthread_cond_broadcast(ptr noundef getelementptr inbounds nuw (%struct.pmix_lock_t, ptr @pmix_global_lock, i32 0, i32 2)) #10
  call void @pmix_mutex_unlock(ptr noundef getelementptr inbounds nuw (%struct.pmix_lock_t, ptr @pmix_global_lock, i32 0, i32 1))
  br label %22

22:                                               ; preds = %20
  br label %23

23:                                               ; preds = %22
  store i32 -31, ptr %3, align 4
  store i32 1, ptr %7, align 4
  br label %33

24:                                               ; preds = %16
  br label %25

25:                                               ; preds = %24
  store volatile i8 0, ptr getelementptr inbounds nuw (%struct.pmix_lock_t, ptr @pmix_global_lock, i32 0, i32 3), align 8, !tbaa !7
  call void @pmix_atomic_wmb()
  %26 = call i32 @pthread_cond_broadcast(ptr noundef getelementptr inbounds nuw (%struct.pmix_lock_t, ptr @pmix_global_lock, i32 0, i32 2)) #10
  call void @pmix_mutex_unlock(ptr noundef getelementptr inbounds nuw (%struct.pmix_lock_t, ptr @pmix_global_lock, i32 0, i32 1))
  br label %27

27:                                               ; preds = %25
  br label %28

28:                                               ; preds = %27
  %29 = load ptr, ptr %4, align 8, !tbaa !3
  %30 = load i8, ptr %5, align 1, !tbaa !86
  %31 = call i32 @pmix_hwloc_get_cpuset(ptr noundef %29, i8 noundef zeroext %30)
  store i32 %31, ptr %6, align 4, !tbaa !41
  %32 = load i32, ptr %6, align 4, !tbaa !41
  store i32 %32, ptr %3, align 4
  store i32 1, ptr %7, align 4
  br label %33

33:                                               ; preds = %28, %23
  call void @llvm.lifetime.end.p0(i64 4, ptr %6) #10
  %34 = load i32, ptr %3, align 4
  ret i32 %34
}