; Function Attrs: nounwind uwtable
define i32 @PMIx_Get_cpuset(ptr noundef %0, i8 noundef zeroext %1) local_unnamed_addr #0 {
  %3 = tail call i32 @pthread_mutex_lock(ptr noundef nonnull getelementptr inbounds nuw (i8, ptr @pmix_global_lock, i64 128)) #12
  %4 = load volatile i8, ptr getelementptr inbounds nuw (i8, ptr @pmix_global_lock, i64 216), align 8, !tbaa !3, !range !14, !noundef !15
  %5 = trunc nuw i8 %4 to i1
  br i1 %5, label %.lr.ph, label %._crit_edge

.lr.ph:                                           ; preds = %2, %.lr.ph
  %6 = tail call i32 @pthread_cond_wait(ptr noundef nonnull getelementptr inbounds nuw (i8, ptr @pmix_global_lock, i64 168), ptr noundef nonnull getelementptr inbounds nuw (i8, ptr @pmix_global_lock, i64 128)) #12
  %7 = load volatile i8, ptr getelementptr inbounds nuw (i8, ptr @pmix_global_lock, i64 216), align 8, !tbaa !3, !range !14, !noundef !15
  %8 = trunc nuw i8 %7 to i1
  br i1 %8, label %.lr.ph, label %._crit_edge, !llvm.loop !69

._crit_edge:                                      ; preds = %.lr.ph, %2
  fence acquire
  store volatile i8 1, ptr getelementptr inbounds nuw (i8, ptr @pmix_global_lock, i64 216), align 8, !tbaa !3
  %9 = load i32, ptr @pmix_globals, align 8, !tbaa !18
  %10 = icmp slt i32 %9, 1
  store volatile i8 0, ptr getelementptr inbounds nuw (i8, ptr @pmix_global_lock, i64 216), align 8, !tbaa !3
  fence release
  %11 = tail call i32 @pthread_cond_broadcast(ptr noundef nonnull getelementptr inbounds nuw (i8, ptr @pmix_global_lock, i64 168)) #12
  %12 = tail call i32 @pthread_mutex_unlock(ptr noundef nonnull getelementptr inbounds nuw (i8, ptr @pmix_global_lock, i64 128)) #12
  br i1 %10, label %15, label %13

13:                                               ; preds = %._crit_edge
  %14 = tail call i32 @pmix_hwloc_get_cpuset(ptr noundef %0, i8 noundef zeroext %1) #12
  br label %15

15:                                               ; preds = %._crit_edge, %13
  %.0 = phi i32 [ %14, %13 ], [ -31, %._crit_edge ]
  ret i32 %.0
}